target datalayout = "e-m:e-p270:32:32-p271:32:32-p272:64:64-i64:64-i128:128-f80:128-n8:16:32:64-S128"
target triple = "x86_64-unknown-linux-gnu"

%struct.redisCommand = type { ptr, ptr, ptr, ptr, i32, ptr, ptr, i32, ptr, i32, ptr, i32, ptr, i32, i64, i64, ptr, i32, ptr, i32, ptr, ptr, i64, i64, i64, i64, i32, ptr, ptr, %struct.keySpec, ptr, ptr, ptr }
%struct.keySpec = type { ptr, i64, i32, %union.anon, i32, %union.anon.2 }
%union.anon = type { %struct.anon.1 }
%struct.anon.1 = type { ptr, i32 }
%union.anon.2 = type { %struct.anon.3 }
%struct.anon.3 = type { i32, i32, i32 }
%struct.sdshdr8 = type { i8, i8, i8, [0 x i8] }
%struct.sdshdr16 = type <{ i16, i16, i8, [0 x i8] }>
%struct.sdshdr32 = type <{ i32, i32, i8, [0 x i8] }>
%struct.sdshdr64 = type <{ i64, i64, i8, [0 x i8] }>
%struct.commandListFilter = type { i32, ptr, %struct.anon.5 }
%struct.anon.5 = type { i32, %union.anon.6 }
%union.anon.6 = type { i64 }

@.str.9 = private unnamed_addr constant [9 x i8] c"server.c\00", align 1
@.str.302 = private unnamed_addr constant [23 x i8] c"Invalid filter type %d\00", align 1

; Function Attrs: nounwind uwtable
define internal i64 @sdslen(ptr noundef %s) #0 {
entry:
  %retval = alloca i64, align 8
  %s.addr = alloca ptr, align 8
  %flags = alloca i8, align 1
  store ptr %s, ptr %s.addr, align 8
  %0 = load ptr, ptr %s.addr, align 8
  %arrayidx = getelementptr inbounds i8, ptr %0, i64 -1
  %1 = load i8, ptr %arrayidx, align 1
  store i8 %1, ptr %flags, align 1
  %2 = load i8, ptr %flags, align 1
  %conv = zext i8 %2 to i32
  %and = and i32 %conv, 7
  switch i32 %and, label %sw.epilog [
    i32 0, label %sw.bb
    i32 1, label %sw.bb3
    i32 2, label %sw.bb5
    i32 3, label %sw.bb9
    i32 4, label %sw.bb13
  ]

sw.bb:                                            ; preds = %entry
  %3 = load i8, ptr %flags, align 1
  %conv1 = zext i8 %3 to i32
  %shr = ashr i32 %conv1, 3
  %conv2 = sext i32 %shr to i64
  store i64 %conv2, ptr %retval, align 8
  br label %return

sw.bb3:                                           ; preds = %entry
  %4 = load ptr, ptr %s.addr, align 8
  %add.ptr = getelementptr inbounds i8, ptr %4, i64 -3
  %len = getelementptr inbounds %struct.sdshdr8, ptr %add.ptr, i32 0, i32 0
  %5 = load i8, ptr %len, align 1
  %conv4 = zext i8 %5 to i64
  store i64 %conv4, ptr %retval, align 8
  br label %return

sw.bb5:                                           ; preds = %entry
  %6 = load ptr, ptr %s.addr, align 8
  %add.ptr6 = getelementptr inbounds i8, ptr %6, i64 -5
  %len7 = getelementptr inbounds %struct.sdshdr16, ptr %add.ptr6, i32 0, i32 0
  %7 = load i16, ptr %len7, align 1
  %conv8 = zext i16 %7 to i64
  store i64 %conv8, ptr %retval, align 8
  br label %return

sw.bb9:                                           ; preds = %entry
  %8 = load ptr, ptr %s.addr, align 8
  %add.ptr10 = getelementptr inbounds i8, ptr %8, i64 -9
  %len11 = getelementptr inbounds %struct.sdshdr32, ptr %add.ptr10, i32 0, i32 0
  %9 = load i32, ptr %len11, align 1
  %conv12 = zext i32 %9 to i64
  store i64 %conv12, ptr %retval, align 8
  br label %return

sw.bb13:                                          ; preds = %entry
  %10 = load ptr, ptr %s.addr, align 8
  %add.ptr14 = getelementptr inbounds i8, ptr %10, i64 -17
  %len15 = getelementptr inbounds %struct.sdshdr64, ptr %add.ptr14, i32 0, i32 0
  %11 = load i64, ptr %len15, align 1
  store i64 %11, ptr %retval, align 8
  br label %return

sw.epilog:                                        ; preds = %entry
  store i64 0, ptr %retval, align 8
  br label %return

return:                                           ; preds = %sw.epilog, %sw.bb13, %sw.bb9, %sw.bb5, %sw.bb3, %sw.bb
  %12 = load i64, ptr %retval, align 8
  ret i64 %12
}

; Function Attrs: nounwind uwtable
define dso_local i32 @shouldFilterFromCommandList(ptr noundef %cmd, ptr noundef %filter) #0 {
entry:
  %retval = alloca i32, align 4
  %cmd.addr = alloca ptr, align 8
  %filter.addr = alloca ptr, align 8
  %cat = alloca i64, align 8
  store ptr %cmd, ptr %cmd.addr, align 8
  store ptr %filter, ptr %filter.addr, align 8
  %0 = load ptr, ptr %filter.addr, align 8
  %type = getelementptr inbounds %struct.commandListFilter, ptr %0, i32 0, i32 0
  %1 = load i32, ptr %type, align 8
  switch i32 %1, label %sw.default [
    i32 0, label %sw.bb
    i32 1, label %sw.bb8
    i32 2, label %sw.bb27
  ]

sw.bb:                                            ; preds = %entry
  %2 = load ptr, ptr %filter.addr, align 8
  %cache = getelementptr inbounds %struct.commandListFilter, ptr %2, i32 0, i32 2
  %valid = getelementptr inbounds %struct.anon.5, ptr %cache, i32 0, i32 0
  %3 = load i32, ptr %valid, align 8
  %tobool = icmp ne i32 %3, 0
  br i1 %tobool, label %if.end, label %if.then

if.then:                                          ; preds = %sw.bb
  %4 = load ptr, ptr %filter.addr, align 8
  %arg = getelementptr inbounds %struct.commandListFilter, ptr %4, i32 0, i32 1
  %5 = load ptr, ptr %arg, align 8
  %call = call ptr @moduleGetHandleByName(ptr noundef %5)
  %6 = load ptr, ptr %filter.addr, align 8
  %cache1 = getelementptr inbounds %struct.commandListFilter, ptr %6, i32 0, i32 2
  %u = getelementptr inbounds %struct.anon.5, ptr %cache1, i32 0, i32 1
  store ptr %call, ptr %u, align 8
  %7 = load ptr, ptr %filter.addr, align 8
  %cache2 = getelementptr inbounds %struct.commandListFilter, ptr %7, i32 0, i32 2
  %valid3 = getelementptr inbounds %struct.anon.5, ptr %cache2, i32 0, i32 0
  store i32 1, ptr %valid3, align 8
  br label %if.end

if.end:                                           ; preds = %if.then, %sw.bb
  %8 = load ptr, ptr %filter.addr, align 8
  %cache4 = getelementptr inbounds %struct.commandListFilter, ptr %8, i32 0, i32 2
  %u5 = getelementptr inbounds %struct.anon.5, ptr %cache4, i32 0, i32 1
  %9 = load ptr, ptr %u5, align 8
  %10 = load ptr, ptr %cmd.addr, align 8
  %call6 = call i32 @moduleIsModuleCommand(ptr noundef %9, ptr noundef %10)
  %tobool7 = icmp ne i32 %call6, 0
  %lnot = xor i1 %tobool7, true
  %lnot.ext = zext i1 %lnot to i32
  store i32 %lnot.ext, ptr %retval, align 4
  br label %return

sw.bb8:                                           ; preds = %entry
  %11 = load ptr, ptr %filter.addr, align 8
  %cache9 = getelementptr inbounds %struct.commandListFilter, ptr %11, i32 0, i32 2
  %valid10 = getelementptr inbounds %struct.anon.5, ptr %cache9, i32 0, i32 0
  %12 = load i32, ptr %valid10, align 8
  %tobool11 = icmp ne i32 %12, 0
  br i1 %tobool11, label %if.end19, label %if.then12

if.then12:                                        ; preds = %sw.bb8
  %13 = load ptr, ptr %filter.addr, align 8
  %arg13 = getelementptr inbounds %struct.commandListFilter, ptr %13, i32 0, i32 1
  %14 = load ptr, ptr %arg13, align 8
  %call14 = call i64 @ACLGetCommandCategoryFlagByName(ptr noundef %14)
  %15 = load ptr, ptr %filter.addr, align 8
  %cache15 = getelementptr inbounds %struct.commandListFilter, ptr %15, i32 0, i32 2
  %u16 = getelementptr inbounds %struct.anon.5, ptr %cache15, i32 0, i32 1
  store i64 %call14, ptr %u16, align 8
  %16 = load ptr, ptr %filter.addr, align 8
  %cache17 = getelementptr inbounds %struct.commandListFilter, ptr %16, i32 0, i32 2
  %valid18 = getelementptr inbounds %struct.anon.5, ptr %cache17, i32 0, i32 0
  store i32 1, ptr %valid18, align 8
  br label %if.end19

if.end19:                                         ; preds = %if.then12, %sw.bb8
  %17 = load ptr, ptr %filter.addr, align 8
  %cache20 = getelementptr inbounds %struct.commandListFilter, ptr %17, i32 0, i32 2
  %u21 = getelementptr inbounds %struct.anon.5, ptr %cache20, i32 0, i32 1
  %18 = load i64, ptr %u21, align 8
  store i64 %18, ptr %cat, align 8
  %19 = load i64, ptr %cat, align 8
  %cmp = icmp eq i64 %19, 0
  br i1 %cmp, label %if.then22, label %if.end23

if.then22:                                        ; preds = %if.end19
  store i32 1, ptr %retval, align 4
  br label %return

if.end23:                                         ; preds = %if.end19
  %20 = load ptr, ptr %cmd.addr, align 8
  %acl_categories = getelementptr inbounds %struct.redisCommand, ptr %20, i32 0, i32 15
  %21 = load i64, ptr %acl_categories, align 8
  %22 = load i64, ptr %cat, align 8
  %and = and i64 %21, %22
  %tobool24 = icmp ne i64 %and, 0
  %lnot25 = xor i1 %tobool24, true
  %lnot.ext26 = zext i1 %lnot25 to i32
  store i32 %lnot.ext26, ptr %retval, align 4
  br label %return

sw.bb27:                                          ; preds = %entry
  %23 = load ptr, ptr %filter.addr, align 8
  %arg28 = getelementptr inbounds %struct.commandListFilter, ptr %23, i32 0, i32 1
  %24 = load ptr, ptr %arg28, align 8
  %25 = load ptr, ptr %filter.addr, align 8
  %arg29 = getelementptr inbounds %struct.commandListFilter, ptr %25, i32 0, i32 1
  %26 = load ptr, ptr %arg29, align 8
  %call30 = call i64 @sdslen(ptr noundef %26)
  %conv = trunc i64 %call30 to i32
  %27 = load ptr, ptr %cmd.addr, align 8
  %fullname = getelementptr inbounds %struct.redisCommand, ptr %27, i32 0, i32 27
  %28 = load ptr, ptr %fullname, align 8
  %29 = load ptr, ptr %cmd.addr, align 8
  %fullname31 = getelementptr inbounds %struct.redisCommand, ptr %29, i32 0, i32 27
  %30 = load ptr, ptr %fullname31, align 8
  %call32 = call i64 @sdslen(ptr noundef %30)
  %conv33 = trunc i64 %call32 to i32
  %call34 = call i32 @stringmatchlen(ptr noundef %24, i32 noundef %conv, ptr noundef %28, i32 noundef %conv33, i32 noundef 1)
  %tobool35 = icmp ne i32 %call34, 0
  %lnot36 = xor i1 %tobool35, true
  %lnot.ext37 = zext i1 %lnot36 to i32
  store i32 %lnot.ext37, ptr %retval, align 4
  br label %return

sw.default:                                       ; preds = %entry
  %31 = load ptr, ptr %filter.addr, align 8
  %type38 = getelementptr inbounds %struct.commandListFilter, ptr %31, i32 0, i32 0
  %32 = load i32, ptr %type38, align 8
  call void (ptr, i32, ptr, ...) @_serverPanic(ptr noundef @.str.9, i32 noundef 5175, ptr noundef @.str.302, i32 noundef %32)
  call void @abort() #16
  unreachable

return:                                           ; preds = %sw.bb27, %if.end23, %if.then22, %if.end
  %33 = load i32, ptr %retval, align 4
  ret i32 %33
}