; Function Attrs: nounwind uwtable
define dso_local i32 @shouldFilterFromCommandList(ptr noundef %cmd, ptr nocapture noundef %filter) local_unnamed_addr #0 {
entry:
  %0 = load i32, ptr %filter, align 8
  switch i32 %0, label %sw.default [
    i32 0, label %sw.bb
    i32 1, label %sw.bb8
    i32 2, label %sw.bb27
  ]

sw.bb:                                            ; preds = %entry
  %cache = getelementptr inbounds i8, ptr %filter, i64 16
  %1 = load i32, ptr %cache, align 8
  %tobool.not = icmp eq i32 %1, 0
  br i1 %tobool.not, label %if.then, label %sw.bb.if.end_crit_edge

sw.bb.if.end_crit_edge:                           ; preds = %sw.bb
  %u5.phi.trans.insert = getelementptr inbounds i8, ptr %filter, i64 24
  %.pre37 = load ptr, ptr %u5.phi.trans.insert, align 8
  br label %if.end

if.then:                                          ; preds = %sw.bb
  %arg = getelementptr inbounds i8, ptr %filter, i64 8
  %2 = load ptr, ptr %arg, align 8
  %call = tail call ptr @moduleGetHandleByName(ptr noundef %2) #38
  %u = getelementptr inbounds i8, ptr %filter, i64 24
  store ptr %call, ptr %u, align 8
  store i32 1, ptr %cache, align 8
  br label %if.end

if.end:                                           ; preds = %sw.bb.if.end_crit_edge, %if.then
  %3 = phi ptr [ %.pre37, %sw.bb.if.end_crit_edge ], [ %call, %if.then ]
  %call6 = tail call i32 @moduleIsModuleCommand(ptr noundef %3, ptr noundef %cmd) #38
  %tobool7.not = icmp eq i32 %call6, 0
  br label %return

sw.bb8:                                           ; preds = %entry
  %cache9 = getelementptr inbounds i8, ptr %filter, i64 16
  %4 = load i32, ptr %cache9, align 8
  %tobool11.not = icmp eq i32 %4, 0
  br i1 %tobool11.not, label %if.then12, label %sw.bb8.if.end19_crit_edge

sw.bb8.if.end19_crit_edge:                        ; preds = %sw.bb8
  %u21.phi.trans.insert = getelementptr inbounds i8, ptr %filter, i64 24
  %.pre = load i64, ptr %u21.phi.trans.insert, align 8
  br label %if.end19

if.then12:                                        ; preds = %sw.bb8
  %arg13 = getelementptr inbounds i8, ptr %filter, i64 8
  %5 = load ptr, ptr %arg13, align 8
  %call14 = tail call i64 @ACLGetCommandCategoryFlagByName(ptr noundef %5) #38
  %u16 = getelementptr inbounds i8, ptr %filter, i64 24
  store i64 %call14, ptr %u16, align 8
  store i32 1, ptr %cache9, align 8
  br label %if.end19

if.end19:                                         ; preds = %sw.bb8.if.end19_crit_edge, %if.then12
  %6 = phi i64 [ %.pre, %sw.bb8.if.end19_crit_edge ], [ %call14, %if.then12 ]
  %cmp = icmp eq i64 %6, 0
  br i1 %cmp, label %return, label %if.end23

if.end23:                                         ; preds = %if.end19
  %acl_categories = getelementptr inbounds i8, ptr %cmd, i64 120
  %7 = load i64, ptr %acl_categories, align 8
  %and = and i64 %7, %6
  %tobool24.not = icmp eq i64 %and, 0
  br label %return

sw.bb27:                                          ; preds = %entry
  %arg28 = getelementptr inbounds i8, ptr %filter, i64 8
  %8 = load ptr, ptr %arg28, align 8
  %arrayidx.i = getelementptr inbounds i8, ptr %8, i64 -1
  %9 = load i8, ptr %arrayidx.i, align 1
  %conv.i = zext i8 %9 to i32
  %and.i = and i32 %conv.i, 7
  switch i32 %and.i, label %sdslen.exit [
    i32 0, label %sw.bb.i
    i32 1, label %sw.bb3.i
    i32 2, label %sw.bb5.i
    i32 3, label %sw.bb9.i
    i32 4, label %sw.bb13.i
  ]

sw.bb.i:                                          ; preds = %sw.bb27
  %shr.i = lshr i32 %conv.i, 3
  %conv2.i = zext nneg i32 %shr.i to i64
  br label %sdslen.exit

sw.bb3.i:                                         ; preds = %sw.bb27
  %add.ptr.i = getelementptr inbounds i8, ptr %8, i64 -3
  %10 = load i8, ptr %add.ptr.i, align 1
  %conv4.i = zext i8 %10 to i64
  br label %sdslen.exit

sw.bb5.i:                                         ; preds = %sw.bb27
  %add.ptr6.i = getelementptr inbounds i8, ptr %8, i64 -5
  %11 = load i16, ptr %add.ptr6.i, align 1
  %conv8.i = zext i16 %11 to i64
  br label %sdslen.exit

sw.bb9.i:                                         ; preds = %sw.bb27
  %add.ptr10.i = getelementptr inbounds i8, ptr %8, i64 -9
  %12 = load i32, ptr %add.ptr10.i, align 1
  %conv12.i = zext i32 %12 to i64
  br label %sdslen.exit

sw.bb13.i:                                        ; preds = %sw.bb27
  %add.ptr14.i = getelementptr inbounds i8, ptr %8, i64 -17
  %13 = load i64, ptr %add.ptr14.i, align 1
  br label %sdslen.exit

sdslen.exit:                                      ; preds = %sw.bb27, %sw.bb.i, %sw.bb3.i, %sw.bb5.i, %sw.bb9.i, %sw.bb13.i
  %retval.0.i = phi i64 [ %13, %sw.bb13.i ], [ %conv12.i, %sw.bb9.i ], [ %conv8.i, %sw.bb5.i ], [ %conv4.i, %sw.bb3.i ], [ %conv2.i, %sw.bb.i ], [ 0, %sw.bb27 ]
  %conv = trunc i64 %retval.0.i to i32
  %fullname = getelementptr inbounds i8, ptr %cmd, i64 216
  %14 = load ptr, ptr %fullname, align 8
  %arrayidx.i18 = getelementptr inbounds i8, ptr %14, i64 -1
  %15 = load i8, ptr %arrayidx.i18, align 1
  %conv.i19 = zext i8 %15 to i32
  %and.i20 = and i32 %conv.i19, 7
  switch i32 %and.i20, label %sdslen.exit36 [
    i32 0, label %sw.bb.i33
    i32 1, label %sw.bb3.i30
    i32 2, label %sw.bb5.i27
    i32 3, label %sw.bb9.i24
    i32 4, label %sw.bb13.i21
  ]

sw.bb.i33:                                        ; preds = %sdslen.exit
  %shr.i34 = lshr i32 %conv.i19, 3
  %conv2.i35 = zext nneg i32 %shr.i34 to i64
  br label %sdslen.exit36

sw.bb3.i30:                                       ; preds = %sdslen.exit
  %add.ptr.i31 = getelementptr inbounds i8, ptr %14, i64 -3
  %16 = load i8, ptr %add.ptr.i31, align 1
  %conv4.i32 = zext i8 %16 to i64
  br label %sdslen.exit36

sw.bb5.i27:                                       ; preds = %sdslen.exit
  %add.ptr6.i28 = getelementptr inbounds i8, ptr %14, i64 -5
  %17 = load i16, ptr %add.ptr6.i28, align 1
  %conv8.i29 = zext i16 %17 to i64
  br label %sdslen.exit36

sw.bb9.i24:                                       ; preds = %sdslen.exit
  %add.ptr10.i25 = getelementptr inbounds i8, ptr %14, i64 -9
  %18 = load i32, ptr %add.ptr10.i25, align 1
  %conv12.i26 = zext i32 %18 to i64
  br label %sdslen.exit36

sw.bb13.i21:                                      ; preds = %sdslen.exit
  %add.ptr14.i22 = getelementptr inbounds i8, ptr %14, i64 -17
  %19 = load i64, ptr %add.ptr14.i22, align 1
  br label %sdslen.exit36

sdslen.exit36:                                    ; preds = %sdslen.exit, %sw.bb.i33, %sw.bb3.i30, %sw.bb5.i27, %sw.bb9.i24, %sw.bb13.i21
  %retval.0.i23 = phi i64 [ %19, %sw.bb13.i21 ], [ %conv12.i26, %sw.bb9.i24 ], [ %conv8.i29, %sw.bb5.i27 ], [ %conv4.i32, %sw.bb3.i30 ], [ %conv2.i35, %sw.bb.i33 ], [ 0, %sdslen.exit ]
  %conv33 = trunc i64 %retval.0.i23 to i32
  %call34 = tail call i32 @stringmatchlen(ptr noundef nonnull %8, i32 noundef %conv, ptr noundef nonnull %14, i32 noundef %conv33, i32 noundef 1) #38
  %tobool35.not = icmp eq i32 %call34, 0
  br label %return

sw.default:                                       ; preds = %entry
  tail call void (ptr, i32, ptr, ...) @_serverPanic(ptr noundef nonnull @.str.9, i32 noundef 5175, ptr noundef nonnull @.str.302, i32 noundef %0) #38
  tail call void @abort() #40
  unreachable

return:                                           ; preds = %if.end19, %sdslen.exit36, %if.end23, %if.end
  %retval.0.shrunk = phi i1 [ %tobool35.not, %sdslen.exit36 ], [ %tobool24.not, %if.end23 ], [ %tobool7.not, %if.end ], [ true, %if.end19 ]
  %retval.0 = zext i1 %retval.0.shrunk to i32
  ret i32 %retval.0
}